; Function Attrs: mustprogress uwtable
define void @_ZN10TimerGroupC2Ev(ptr noundef nonnull align 8 dereferenceable(56) %0) unnamed_addr #3 align 2 personality ptr @__gxx_personality_v0 {
  tail call void @llvm.memset.p0.i64(ptr noundef nonnull align 8 dereferenceable(24) %0, i8 0, i64 24, i1 false)
  %2 = getelementptr inbounds nuw i8, ptr %0, i64 24
  tail call void @_ZNSt7__cxx1112basic_stringIcSt11char_traitsIcESaIcEEC1Ev(ptr noundef nonnull align 8 dereferenceable(32) %2) #15
  %3 = getelementptr inbounds nuw i8, ptr %0, i64 8
  %4 = load ptr, ptr %3, align 8
  %5 = load ptr, ptr %0, align 8
  %6 = ptrtoint ptr %4 to i64
  %7 = ptrtoint ptr %5 to i64
  %8 = sub i64 %6, %7
  %9 = sdiv exact i64 %8, 72
  %10 = icmp ult i64 %9, 50
  br i1 %10, label %11, label %13

11:                                               ; preds = %1
  %12 = sub nuw nsw i64 50, %9
  invoke void @_ZNSt6vectorI5TimerSaIS0_EE17_M_default_appendEm(ptr noundef nonnull align 8 dereferenceable(24) %0, i64 noundef %12)
          to label %.noexc unwind label %.loopexit.split-lp

.noexc:                                           ; preds = %11
  %.pre.i = load ptr, ptr %3, align 8
  br label %_ZNSt6vectorI5TimerSaIS0_EE6resizeEm.exit.i

13:                                               ; preds = %1
  %.not.i = icmp eq i64 %8, 3600
  br i1 %.not.i, label %_ZNSt6vectorI5TimerSaIS0_EE6resizeEm.exit.i, label %14

14:                                               ; preds = %13
  %15 = getelementptr inbounds i8, ptr %5, i64 3600
  %.not.i.i.i = icmp eq ptr %4, %15
  br i1 %.not.i.i.i, label %_ZNSt6vectorI5TimerSaIS0_EE6resizeEm.exit.i, label %.lr.ph.i.i.i.i.i.i

.lr.ph.i.i.i.i.i.i:                               ; preds = %14, %.lr.ph.i.i.i.i.i.i
  %.05.i.i.i.i.i.i = phi ptr [ %16, %.lr.ph.i.i.i.i.i.i ], [ %15, %14 ]
  tail call void @_ZN5TimerD1Ev(ptr noundef nonnull align 8 dereferenceable(72) %.05.i.i.i.i.i.i) #15
  %16 = getelementptr inbounds i8, ptr %.05.i.i.i.i.i.i, i64 72
  %.not.i.i.i.i.i.i = icmp eq ptr %16, %4
  br i1 %.not.i.i.i.i.i.i, label %_ZSt8_DestroyIP5TimerS0_EvT_S2_RSaIT0_E.exit.i.i.i, label %.lr.ph.i.i.i.i.i.i, !llvm.loop !4

_ZSt8_DestroyIP5TimerS0_EvT_S2_RSaIT0_E.exit.i.i.i: ; preds = %.lr.ph.i.i.i.i.i.i
  store ptr %15, ptr %3, align 8
  br label %_ZNSt6vectorI5TimerSaIS0_EE6resizeEm.exit.i

_ZNSt6vectorI5TimerSaIS0_EE6resizeEm.exit.i:      ; preds = %_ZSt8_DestroyIP5TimerS0_EvT_S2_RSaIT0_E.exit.i.i.i, %14, %13, %.noexc
  %17 = phi ptr [ %.pre.i, %.noexc ], [ %4, %13 ], [ %4, %14 ], [ %15, %_ZSt8_DestroyIP5TimerS0_EvT_S2_RSaIT0_E.exit.i.i.i ]
  %18 = load ptr, ptr %0, align 8
  %.not5.i = icmp eq ptr %17, %18
  br i1 %.not5.i, label %_ZN10TimerGroup5ResetEv.exit, label %.lr.ph.i

.lr.ph.i:                                         ; preds = %_ZNSt6vectorI5TimerSaIS0_EE6resizeEm.exit.i, %.noexc2
  %19 = phi ptr [ %25, %.noexc2 ], [ %18, %_ZNSt6vectorI5TimerSaIS0_EE6resizeEm.exit.i ]
  %20 = phi i64 [ %23, %.noexc2 ], [ 0, %_ZNSt6vectorI5TimerSaIS0_EE6resizeEm.exit.i ]
  %.04.i = phi i32 [ %22, %.noexc2 ], [ 0, %_ZNSt6vectorI5TimerSaIS0_EE6resizeEm.exit.i ]
  %21 = getelementptr inbounds %class.Timer, ptr %19, i64 %20
  invoke void @_ZN5Timer5ResetEv(ptr noundef nonnull align 8 dereferenceable(72) %21)
          to label %.noexc2 unwind label %.loopexit

.noexc2:                                          ; preds = %.lr.ph.i
  %22 = add i32 %.04.i, 1
  %23 = zext i32 %22 to i64
  %24 = load ptr, ptr %3, align 8
  %25 = load ptr, ptr %0, align 8
  %26 = ptrtoint ptr %24 to i64
  %27 = ptrtoint ptr %25 to i64
  %28 = sub i64 %26, %27
  %29 = sdiv exact i64 %28, 72
  %30 = icmp ugt i64 %29, %23
  br i1 %30, label %.lr.ph.i, label %_ZN10TimerGroup5ResetEv.exit, !llvm.loop !6

_ZN10TimerGroup5ResetEv.exit:                     ; preds = %.noexc2, %_ZNSt6vectorI5TimerSaIS0_EE6resizeEm.exit.i
  ret void

.loopexit:                                        ; preds = %.lr.ph.i
  %lpad.loopexit = landingpad { ptr, i32 }
          cleanup
  br label %31

.loopexit.split-lp:                               ; preds = %11
  %lpad.loopexit.split-lp = landingpad { ptr, i32 }
          cleanup
  br label %31

31:                                               ; preds = %.loopexit.split-lp, %.loopexit
  %lpad.phi = phi { ptr, i32 } [ %lpad.loopexit, %.loopexit ], [ %lpad.loopexit.split-lp, %.loopexit.split-lp ]
  tail call void @_ZNSt7__cxx1112basic_stringIcSt11char_traitsIcESaIcEED1Ev(ptr noundef nonnull align 8 dereferenceable(32) %2) #15
  tail call void @_ZNSt6vectorI5TimerSaIS0_EED2Ev(ptr noundef nonnull align 8 dereferenceable(24) %0) #15
  resume { ptr, i32 } %lpad.phi
}